; Function Attrs: nounwind uwtable
define ptr @l_Array_foldlMUnsafe_fold___at_Lean_Meta_LazyDiscrTree_MatchResult_appendResults___spec__3___rarg___boxed(ptr noundef %0, ptr noundef %1, ptr noundef %2, ptr noundef %3) #1 {
  %5 = getelementptr i8, ptr %1, i64 8
  %.val15 = load i64, ptr %5, align 8, !tbaa !14
  %6 = ptrtoint ptr %1 to i64
  %7 = and i64 %6, 1
  %.not = icmp eq i64 %7, 0
  br i1 %.not, label %8, label %lean_dec.exit10

8:                                                ; preds = %4
  %9 = load i32, ptr %1, align 4, !tbaa !8
  %10 = icmp sgt i32 %9, 1
  br i1 %10, label %11, label %13, !prof !11

11:                                               ; preds = %8
  %12 = add nsw i32 %9, -1
  store i32 %12, ptr %1, align 4, !tbaa !8
  br label %lean_dec.exit10

13:                                               ; preds = %8
  %.not.i = icmp eq i32 %9, 0
  br i1 %.not.i, label %lean_dec.exit10, label %14

14:                                               ; preds = %13
  tail call void @lean_dec_ref_cold(ptr noundef nonnull %1) #6
  br label %lean_dec.exit10

lean_dec.exit10:                                  ; preds = %14, %13, %11, %4
  %15 = getelementptr i8, ptr %2, i64 8
  %.val = load i64, ptr %15, align 8, !tbaa !14
  %16 = ptrtoint ptr %2 to i64
  %17 = and i64 %16, 1
  %.not17 = icmp eq i64 %17, 0
  br i1 %.not17, label %18, label %lean_dec.exit9

18:                                               ; preds = %lean_dec.exit10
  %19 = load i32, ptr %2, align 4, !tbaa !8
  %20 = icmp sgt i32 %19, 1
  br i1 %20, label %21, label %23, !prof !11

21:                                               ; preds = %18
  %22 = add nsw i32 %19, -1
  store i32 %22, ptr %2, align 4, !tbaa !8
  br label %lean_dec.exit9

23:                                               ; preds = %18
  %.not.i11 = icmp eq i32 %19, 0
  br i1 %.not.i11, label %lean_dec.exit9, label %24

24:                                               ; preds = %23
  tail call void @lean_dec_ref_cold(ptr noundef nonnull %2) #6
  br label %lean_dec.exit9

lean_dec.exit9:                                   ; preds = %24, %23, %21, %lean_dec.exit10
  %.not32.i = icmp eq i64 %.val15, %.val
  br i1 %.not32.i, label %l_Array_foldlMUnsafe_fold___at_Lean_Meta_LazyDiscrTree_MatchResult_appendResults___spec__3___rarg.exit, label %.lr.ph.i

.lr.ph.i:                                         ; preds = %lean_dec.exit9
  %25 = getelementptr inbounds nuw i8, ptr %0, i64 24
  br label %26

26:                                               ; preds = %49, %.lr.ph.i
  %.01934.i = phi i64 [ %.val15, %.lr.ph.i ], [ %50, %49 ]
  %.02133.i = phi ptr [ %3, %.lr.ph.i ], [ %39, %49 ]
  %27 = getelementptr inbounds nuw [0 x ptr], ptr %25, i64 0, i64 %.01934.i
  %28 = load ptr, ptr %27, align 8, !tbaa !4
  %29 = ptrtoint ptr %28 to i64
  %30 = and i64 %29, 1
  %.not.i23.i = icmp eq i64 %30, 0
  br i1 %.not.i23.i, label %31, label %lean_array_uget.exit.i

31:                                               ; preds = %26
  %.val.i.i.i = load i32, ptr %28, align 4, !tbaa !8
  %32 = icmp sgt i32 %.val.i.i.i, 0
  br i1 %32, label %33, label %35, !prof !11

33:                                               ; preds = %31
  %34 = add nuw i32 %.val.i.i.i, 1
  store i32 %34, ptr %28, align 4, !tbaa !8
  br label %lean_array_uget.exit.i

35:                                               ; preds = %31
  %.not.i.i.i = icmp eq i32 %.val.i.i.i, 0
  br i1 %.not.i.i.i, label %lean_array_uget.exit.i, label %36

36:                                               ; preds = %35
  tail call void @lean_inc_ref_cold(ptr noundef nonnull %28) #6
  br label %lean_array_uget.exit.i

lean_array_uget.exit.i:                           ; preds = %36, %35, %33, %26
  %37 = getelementptr i8, ptr %28, i64 8
  %.val.i = load i64, ptr %37, align 8, !tbaa !14
  %38 = tail call ptr @l_Array_mapMUnsafe_map___at_Lean_Meta_LazyDiscrTree_MatchResult_appendResults___spec__2___rarg(i64 noundef %.val.i, i64 noundef 0, ptr noundef %28)
  %39 = tail call ptr @l_Array_append___rarg(ptr noundef %.02133.i, ptr noundef %38) #6
  %40 = ptrtoint ptr %38 to i64
  %41 = and i64 %40, 1
  %.not31.i = icmp eq i64 %41, 0
  br i1 %.not31.i, label %42, label %49

42:                                               ; preds = %lean_array_uget.exit.i
  %43 = load i32, ptr %38, align 4, !tbaa !8
  %44 = icmp sgt i32 %43, 1
  br i1 %44, label %45, label %47, !prof !11

45:                                               ; preds = %42
  %46 = add nsw i32 %43, -1
  store i32 %46, ptr %38, align 4, !tbaa !8
  br label %49

47:                                               ; preds = %42
  %.not.i.i = icmp eq i32 %43, 0
  br i1 %.not.i.i, label %49, label %48

48:                                               ; preds = %47
  tail call void @lean_dec_ref_cold(ptr noundef nonnull %38) #6
  br label %49

49:                                               ; preds = %48, %47, %45, %lean_array_uget.exit.i
  %50 = add i64 %.01934.i, 1
  %.not.i16 = icmp eq i64 %50, %.val
  br i1 %.not.i16, label %l_Array_foldlMUnsafe_fold___at_Lean_Meta_LazyDiscrTree_MatchResult_appendResults___spec__3___rarg.exit, label %26

l_Array_foldlMUnsafe_fold___at_Lean_Meta_LazyDiscrTree_MatchResult_appendResults___spec__3___rarg.exit: ; preds = %49, %lean_dec.exit9
  %.021.lcssa.i = phi ptr [ %3, %lean_dec.exit9 ], [ %39, %49 ]
  %51 = ptrtoint ptr %0 to i64
  %52 = and i64 %51, 1
  %.not18 = icmp eq i64 %52, 0
  br i1 %.not18, label %53, label %lean_dec.exit

53:                                               ; preds = %l_Array_foldlMUnsafe_fold___at_Lean_Meta_LazyDiscrTree_MatchResult_appendResults___spec__3___rarg.exit
  %54 = load i32, ptr %0, align 4, !tbaa !8
  %55 = icmp sgt i32 %54, 1
  br i1 %55, label %56, label %58, !prof !11

56:                                               ; preds = %53
  %57 = add nsw i32 %54, -1
  store i32 %57, ptr %0, align 4, !tbaa !8
  br label %lean_dec.exit

58:                                               ; preds = %53
  %.not.i13 = icmp eq i32 %54, 0
  br i1 %.not.i13, label %lean_dec.exit, label %59

59:                                               ; preds = %58
  tail call void @lean_dec_ref_cold(ptr noundef nonnull %0) #6
  br label %lean_dec.exit

lean_dec.exit:                                    ; preds = %59, %58, %56, %l_Array_foldlMUnsafe_fold___at_Lean_Meta_LazyDiscrTree_MatchResult_appendResults___spec__3___rarg.exit
  ret ptr %.021.lcssa.i
}